ccopy_reg
_reconstructor
p0
(cnetworkx.classes.digraph
DiGraph
p1
c__builtin__
object
p2
Ntp3
Rp4
(dp5
S'node'
p6
(dp7
(inode
Node
p8
(dp9
S'area'
p10
I8603
sS'outline'
p11
I496
sS'id'
p12
I29
sS'pos'
p13
(I491
I622
tp14
sb(dp15
s(inode
Node
p16
(dp17
g10
I7455
sg11
I452
sg12
I0
sg13
(I60
I763
tp18
sb(dp19
s(inode
Node
p20
(dp21
g10
I23730
sg11
I1148
sg12
I2
sg13
(I112
I500
tp22
sb(dp23
s(inode
Node
p24
(dp25
g10
I9663
sg11
I456
sg12
I3
sg13
(I119
I677
tp26
sb(dp27
s(inode
Node
p28
(dp29
g10
I6975
sg11
I416
sg12
I4
sg13
(I173
I221
tp30
sb(dp31
s(inode
Node
p32
(dp33
g10
I7856
sg11
I440
sg12
I5
sg13
(I183
I338
tp34
sb(dp35
s(inode
Node
p36
(dp37
g10
I13342
sg11
I612
sg12
I1
sg13
(I74
I289
tp38
sb(dp39
s(inode
Node
p40
(dp41
g10
I4907
sg11
I336
sg12
I6
sg13
(I178
I766
tp42
sb(dp43
s(inode
Node
p44
(dp45
g10
I7917
sg11
I416
sg12
I7
sg13
(I209
I592
tp46
sb(dp47
s(inode
Node
p48
(dp49
g10
I10581
sg11
I770
sg12
I8
sg13
(I240
I447
tp50
sb(dp51
s(inode
Node
p52
(dp53
g10
I5885
sg11
I384
sg12
I9
sg13
(I232
I277
tp54
sb(dp55
s(inode
Node
p56
(dp57
g10
I8478
sg11
I474
sg12
I30
sg13
(I518
I727
tp58
sb(dp59
s(inode
Node
p60
(dp61
g10
I3017
sg11
I244
sg12
I10
sg13
(I226
I694
tp62
sb(dp63
s(inode
Node
p64
(dp65
g10
I7604
sg11
I448
sg12
I11
sg13
(I252
I131
tp66
sb(dp67
s(inode
Node
p68
(dp69
g10
I4426
sg11
I376
sg12
I12
sg13
(I268
I803
tp70
sb(dp71
s(inode
Node
p72
(dp73
g10
I1512
sg11
I184
sg12
I13
sg13
(I270
I719
tp74
sb(dp75
s(inode
Node
p76
(dp77
g10
I1337
sg11
I172
sg12
I14
sg13
(I271
I574
tp78
sb(dp79
s(inode
Node
p80
(dp81
g10
I7573
sg11
I472
sg12
I15
sg13
(I312
I213
tp82
sb(dp83
s(inode
Node
p84
(dp85
g10
I2951
sg11
I266
sg12
I16
sg13
(I300
I339
tp86
sb(dp87
s(inode
Node
p88
(dp89
g10
I2971
sg11
I250
sg12
I17
sg13
(I298
I528
tp90
sb(dp91
s(inode
Node
p92
(dp93
g10
I2560
sg11
I250
sg12
I18
sg13
(I298
I615
tp94
sb(dp95
s(inode
Node
p96
(dp97
g10
I3545
sg11
I302
sg12
I19
sg13
(I313
I678
tp98
sb(dp99
s(inode
Node
p100
(dp101
g10
I7336
sg11
I442
sg12
I20
sg13
(I364
I746
tp102
sb(dp103
s(inode
Node
p104
(dp105
g10
I7548
sg11
I533
sg12
I21
sg13
(I352
I428
tp106
sb(dp107
s(inode
Node
p108
(dp109
g10
I3219
sg11
I266
sg12
I22
sg13
(I354
I86
tp110
sb(dp111
s(inode
Node
p112
(dp113
g10
I14072
sg11
I599
sg12
I23
sg13
(I417
I825
tp114
sb(dp115
s(inode
Node
p116
(dp117
g10
I18717
sg11
I736
sg12
I24
sg13
(I437
I288
tp118
sb(dp119
s(inode
Node
p120
(dp121
g10
I8867
sg11
I450
sg12
I25
sg13
(I394
I161
tp122
sb(dp123
s(inode
Node
p124
(dp125
g10
I4570
sg11
I313
sg12
I26
sg13
(I372
I620
tp126
sb(dp127
s(inode
Node
p128
(dp129
g10
I10800
sg11
I540
sg12
I27
sg13
(I409
I512
tp130
sb(dp131
s(inode
Node
p132
(dp133
g10
I5236
sg11
I328
sg12
I28
sg13
(I435
I684
tp134
sb(dp135
ssS'node_dict_factory'
p136
c__builtin__
dict
p137
sS'edge_attr_dict_factory'
p138
g137
sS'succ'
p139
(dp140
g8
(dp141
g56
(dp142
S'weight'
p143
F108.41586599755591
ssg124
(dp144
g143
F119.01680553602503
ssg96
(dp145
g143
F186.60117898877274
ssg100
(dp146
g143
F177.49647883831386
ssg128
(dp147
g143
F137.20058308913997
ssg132
(dp148
g143
F83.54639429682169
sssg16
(dp149
g44
(dp150
g143
F226.80828909014767
ssg40
(dp151
g143
F118.03812943282352
ssg60
(dp152
g143
F179.76929659983654
ssg24
(dp153
g143
F104.29285689825551
ssg68
(dp154
g143
F211.81123671797963
ssg72
(dp155
g143
F214.56001491424257
sssg20
(dp156
g44
(dp157
g143
F133.6899397860587
ssg48
(dp158
g143
F138.53880322855397
ssg88
(dp159
g143
F188.09572031282372
ssg24
(dp160
g143
F177.1383639983163
ssg32
(dp161
g143
F176.87566254292872
ssg76
(dp162
g143
F175.37673733993344
sssg24
(dp163
g44
(dp164
g143
F123.79418403139947
ssg40
(dp165
g143
F106.78014796768171
ssg16
(dp166
g143
F104.29285689825551
ssg20
(dp167
g143
F177.1383639983163
ssg60
(dp168
g143
F108.34205093129813
ssg72
(dp169
g143
F156.7322557739791
sssg28
(dp170
g80
(dp171
g143
F139.2300254973761
ssg84
(dp172
g143
F173.35801106380978
ssg52
(dp173
g143
F81.34494452638098
ssg64
(dp174
g143
F119.75391434103521
ssg32
(dp175
g143
F117.42657280190033
ssg36
(dp176
g143
F120.10412149464314
sssg32
(dp177
g48
(dp178
g143
F123.00406497347964
ssg84
(dp179
g143
F117.00427342623003
ssg52
(dp180
g143
F78.24321056807422
ssg20
(dp181
g143
F176.87566254292872
ssg28
(dp182
g143
F117.42657280190033
ssg36
(dp183
g143
F119.50732195141852
sssg36
(dp184
g48
(dp185
g143
F229.17242417009948
ssg84
(dp186
g143
F231.46490014686893
ssg52
(dp187
g143
F158.45504094221806
ssg20
(dp188
g143
F214.39449619801343
ssg28
(dp189
g143
F120.10412149464314
ssg32
(dp190
g143
F119.50732195141852
sssg40
(dp191
g96
(dp192
g143
F161.14899937635357
ssg16
(dp193
g143
F118.03812943282352
ssg60
(dp194
g143
F86.53323061113575
ssg24
(dp195
g143
F106.78014796768171
ssg68
(dp196
g143
F97.30878685915265
ssg72
(dp197
g143
F103.31021246711285
sssg44
(dp198
g20
(dp199
g143
F133.6899397860587
ssg88
(dp200
g143
F109.62207806824317
ssg60
(dp201
g143
F103.40696301506973
ssg24
(dp202
g143
F123.79418403139947
ssg92
(dp203
g143
F91.92388155425118
ssg76
(dp204
g143
F64.5600495662759
sssg48
(dp205
g84
(dp206
g143
F123.54756169184401
ssg20
(dp207
g143
F138.53880322855397
ssg88
(dp208
g143
F99.62429422585637
ssg32
(dp209
g143
F123.00406497347964
ssg76
(dp210
g143
F130.728726758888
ssg104
(dp211
g143
F113.6001760562016
sssg52
(dp212
g80
(dp213
g143
F102.44998779892558
ssg84
(dp214
g143
F92.02173656261873
ssg28
(dp215
g143
F81.34494452638098
ssg64
(dp216
g143
F147.36349615830918
ssg32
(dp217
g143
F78.24321056807422
ssg36
(dp218
g143
F158.45504094221806
sssg56
(dp219
g8
(dp220
g143
F108.41586599755591
ssg112
(dp221
g143
F140.73023839957068
ssg124
(dp222
g143
F181.01104938649465
ssg96
(dp223
g143
F210.77476129745705
ssg100
(dp224
g143
F155.16765126791086
ssg132
(dp225
g143
F93.47726996441435
sssg60
(dp226
g44
(dp227
g143
F103.40696301506973
ssg72
(dp228
g143
F50.60632371551998
ssg24
(dp229
g143
F108.34205093129813
ssg92
(dp230
g143
F106.88779163215975
ssg96
(dp231
g143
F88.45903006477066
ssg40
(dp232
g143
F86.53323061113575
sssg64
(dp233
g108
(dp234
g143
F111.48542505637228
ssg80
(dp235
g143
F101.6070863670443
ssg84
(dp236
g143
F213.46662502602135
ssg52
(dp237
g143
F147.36349615830918
ssg120
(dp238
g143
F145.13442045221387
ssg28
(dp239
g143
F119.75391434103521
sssg68
(dp240
g40
(dp241
g143
F97.30878685915265
ssg112
(dp242
g143
F150.6154042586614
ssg60
(dp243
g143
F116.81181447096864
ssg96
(dp244
g143
F132.85330255586422
ssg100
(dp245
g143
F111.64676439557037
ssg72
(dp246
g143
F84.02380615040002
sssg72
(dp247
g68
(dp248
g143
F84.02380615040002
ssg60
(dp249
g143
F50.60632371551998
ssg92
(dp250
g143
F107.70329614269008
ssg96
(dp251
g143
F59.413803110051795
ssg100
(dp252
g143
F97.8008179924892
ssg40
(dp253
g143
F103.31021246711285
sssg76
(dp254
g44
(dp255
g143
F64.5600495662759
ssg88
(dp256
g143
F53.33854141237835
ssg60
(dp257
g143
F128.16005617976296
ssg92
(dp258
g143
F49.09175083453431
ssg124
(dp259
g143
F110.98198051936178
ssg96
(dp260
g143
F112.16059914247963
sssg80
(dp261
g108
(dp262
g143
F133.76471881628578
ssg84
(dp263
g143
F126.57013865837392
ssg52
(dp264
g143
F102.44998779892558
ssg64
(dp265
g143
F101.6070863670443
ssg120
(dp266
g143
F97.09788875150684
ssg28
(dp267
g143
F139.2300254973761
sssg84
(dp268
g80
(dp269
g143
F126.57013865837392
ssg52
(dp270
g143
F92.02173656261873
ssg116
(dp271
g143
F146.18481453283715
ssg32
(dp272
g143
F117.00427342623003
ssg48
(dp273
g143
F123.54756169184401
ssg104
(dp274
g143
F103.07764064044152
sssg88
(dp275
g44
(dp276
g143
F109.62207806824317
ssg48
(dp277
g143
F99.62429422585637
ssg92
(dp278
g143
F87.0
ssg128
(dp279
g143
F112.14722466472365
ssg104
(dp280
g143
F113.64858116140297
ssg76
(dp281
g143
F53.33854141237835
sssg92
(dp282
g44
(dp283
g143
F91.92388155425118
ssg60
(dp284
g143
F106.88779163215975
ssg88
(dp285
g143
F87.0
ssg124
(dp286
g143
F74.16872656315464
ssg96
(dp287
g143
F64.76109943476871
ssg76
(dp288
g143
F49.09175083453431
sssg96
(dp289
g60
(dp290
g143
F88.45903006477066
ssg92
(dp291
g143
F64.76109943476871
ssg124
(dp292
g143
F82.73451516749222
ssg100
(dp293
g143
F85.0
ssg72
(dp294
g143
F59.413803110051795
ssg76
(dp295
g143
F112.16059914247963
sssg100
(dp296
g68
(dp297
g143
F111.64676439557037
ssg112
(dp298
g143
F95.13148795220224
ssg124
(dp299
g143
F126.25371281669304
ssg96
(dp300
g143
F85.0
ssg72
(dp301
g143
F97.8008179924892
ssg132
(dp302
g143
F94.26027795418386
sssg104
(dp303
g48
(dp304
g143
F113.6001760562016
ssg84
(dp305
g143
F103.07764064044152
ssg116
(dp306
g143
F163.783393541592
ssg88
(dp307
g143
F113.64858116140297
ssg128
(dp308
g143
F101.51354589413178
ssg76
(dp309
g143
F166.96406799069075
sssg108
(dp310
g80
(dp311
g143
F133.76471881628578
ssg52
(dp312
g143
F226.63847863944022
ssg116
(dp313
g143
F218.38727069131113
ssg64
(dp314
g143
F111.48542505637228
ssg120
(dp315
g143
F85.0
ssg28
(dp316
g143
F225.80079716422614
sssg112
(dp317
g96
(dp318
g143
F180.06943105369106
ssg56
(dp319
g143
F140.73023839957068
ssg68
(dp320
g143
F150.6154042586614
ssg100
(dp321
g143
F95.13148795220224
ssg72
(dp322
g143
F181.23189564753773
ssg132
(dp323
g143
F142.1442928857856
sssg116
(dp324
g108
(dp325
g143
F218.38727069131113
ssg80
(dp326
g143
F145.7737973711325
ssg84
(dp327
g143
F146.18481453283715
ssg52
(dp328
g143
F205.29490982486632
ssg120
(dp329
g143
F134.08206442324789
ssg104
(dp330
g143
F163.783393541592
sssg120
(dp331
g108
(dp332
g143
F85.0
ssg80
(dp333
g143
F97.09788875150684
ssg84
(dp334
g143
F201.2958022413781
ssg52
(dp335
g143
F199.24858845171275
ssg116
(dp336
g143
F134.08206442324789
ssg64
(dp337
g143
F145.13442045221387
sssg124
(dp338
g88
(dp339
g143
F118.06777714516353
ssg92
(dp340
g143
F74.16872656315464
ssg96
(dp341
g143
F82.73451516749222
ssg128
(dp342
g143
F114.16216536138407
ssg132
(dp343
g143
F89.80534505250787
ssg76
(dp344
g143
F110.98198051936178
sssg128
(dp345
g8
(dp346
g143
F137.20058308913997
ssg88
(dp347
g143
F112.14722466472365
ssg92
(dp348
g143
F151.42654985173505
ssg124
(dp349
g143
F114.16216536138407
ssg76
(dp350
g143
F151.28780519261954
ssg104
(dp351
g143
F101.51354589413178
sssg132
(dp352
g8
(dp353
g143
F83.54639429682169
ssg56
(dp354
g143
F93.47726996441435
ssg112
(dp355
g143
F142.1442928857856
ssg124
(dp356
g143
F89.80534505250787
ssg96
(dp357
g143
F122.14745187681976
ssg100
(dp358
g143
F94.26027795418386
ssssS'edge'
p359
g140
sS'graph'
p360
(dp361
S'name'
p362
S'biene'
p363
ssS'adjlist_dict_factory'
p364
g137
sS'adj'
p365
g140
sS'pred'
p366
(dp367
g8
(dp368
g128
g346
sg132
g353
sg56
g220
ssg16
(dp369
g24
g166
sg40
g193
ssg20
(dp370
g24
g167
sg36
g188
sg44
g199
sg48
g207
sg32
g181
ssg24
(dp371
g44
g202
sg40
g195
sg20
g160
sg60
g229
sg16
g153
ssg28
(dp372
g108
g316
sg80
g267
sg52
g215
sg64
g239
sg32
g182
sg36
g189
ssg32
(dp373
g48
g209
sg84
g272
sg52
g217
sg20
g161
sg28
g175
sg36
g190
ssg36
(dp374
g52
g218
sg28
g176
sg32
g183
ssg40
(dp375
g24
g165
sg72
g253
sg60
g232
sg68
g241
sg16
g151
ssg44
(dp376
g16
g150
sg20
g157
sg60
g227
sg88
g276
sg24
g164
sg92
g283
sg76
g255
ssg48
(dp377
g84
g273
sg20
g158
sg88
g277
sg32
g178
sg36
g185
sg104
g304
ssg52
(dp378
g108
g312
sg80
g264
sg84
g270
sg116
g328
sg64
g237
sg120
g335
sg28
g173
sg32
g180
sg36
g187
ssg56
(dp379
g112
g319
sg8
g142
sg132
g354
ssg60
(dp380
g44
g201
sg72
g249
sg96
g290
sg16
g152
sg24
g168
sg92
g284
sg68
g243
sg40
g194
sg76
g257
ssg64
(dp381
g52
g216
sg28
g174
sg108
g314
sg80
g265
sg120
g337
ssg68
(dp382
g112
g320
sg72
g248
sg100
g297
sg40
g196
sg16
g154
ssg72
(dp383
g68
g246
sg16
g155
sg112
g322
sg60
g228
sg24
g169
sg96
g294
sg100
g301
sg40
g197
ssg76
(dp384
g44
g204
sg48
g210
sg20
g162
sg88
g281
sg92
g288
sg124
g344
sg96
g295
sg128
g350
sg104
g309
ssg80
(dp385
g108
g311
sg84
g269
sg52
g213
sg116
g326
sg64
g235
sg120
g333
sg28
g171
ssg84
(dp386
g48
g206
sg80
g263
sg52
g214
sg116
g327
sg64
g236
sg120
g334
sg28
g172
sg32
g179
sg36
g186
sg104
g305
ssg88
(dp387
g44
g200
sg48
g208
sg20
g159
sg92
g285
sg124
g339
sg128
g347
sg76
g256
sg104
g307
ssg92
(dp388
g44
g203
sg60
g230
sg88
g278
sg124
g340
sg96
g291
sg128
g348
sg72
g250
sg76
g258
ssg96
(dp389
g72
g251
sg56
g223
sg112
g318
sg60
g231
sg92
g287
sg8
g145
sg124
g341
sg68
g244
sg100
g300
sg40
g192
sg132
g357
sg76
g260
ssg100
(dp390
g8
g146
sg68
g245
sg56
g224
sg112
g321
sg96
g293
sg72
g252
sg132
g358
ssg104
(dp391
g84
g274
sg116
g330
sg128
g351
sg48
g211
sg88
g280
ssg108
(dp392
g116
g325
sg64
g234
sg80
g262
sg120
g332
ssg112
(dp393
g100
g298
sg132
g355
sg68
g242
sg56
g221
ssg116
(dp394
g84
g271
sg120
g336
sg108
g313
sg104
g306
ssg120
(dp395
g116
g329
sg64
g238
sg108
g315
sg80
g266
ssg124
(dp396
g8
g144
sg56
g222
sg92
g286
sg96
g292
sg100
g299
sg128
g349
sg132
g356
sg76
g259
ssg128
(dp397
g124
g342
sg8
g147
sg88
g279
sg104
g308
ssg132
(dp398
g112
g323
sg100
g302
sg8
g148
sg124
g343
sg56
g225
sssb.