ccopy_reg
_reconstructor
p0
(cnetworkx.classes.digraph
DiGraph
p1
c__builtin__
object
p2
Ntp3
Rp4
(dp5
S'node'
p6
(dp7
(inode
Node
p8
(dp9
S'area'
p10
I227
sS'outline'
p11
I78
sS'id'
p12
I11
sS'pos'
p13
(I247
I534
tp14
sb(dp15
s(inode
Node
p16
(dp17
g10
I512
sg11
I110
sg12
I12
sg13
(I250
I150
tp18
sb(dp19
s(inode
Node
p20
(dp21
g10
I623
sg11
I109
sg12
I13
sg13
(I260
I644
tp22
sb(dp23
s(inode
Node
p24
(dp25
g10
I7
sg11
I7
sg12
I14
sg13
(I285
I776
tp26
sb(dp27
s(inode
Node
p28
(dp29
g10
I249
sg11
I76
sg12
I1
sg13
(I77
I140
tp30
sb(dp31
s(inode
Node
p32
(dp33
g10
I51
sg11
I29
sg12
I15
sg13
(I323
I684
tp34
sb(dp35
s(inode
Node
p36
(dp37
g10
I93
sg11
I40
sg12
I16
sg13
(I467
I148
tp38
sb(dp39
s(inode
Node
p40
(dp41
g10
I44
sg11
I26
sg12
I17
sg13
(I469
I122
tp42
sb(dp43
s(inode
Node
p44
(dp45
g10
I312
sg11
I114
sg12
I18
sg13
(I498
I366
tp46
sb(dp47
s(inode
Node
p48
(dp49
g10
I24
sg11
I17
sg12
I19
sg13
(I560
I306
tp50
sb(dp51
s(inode
Node
p52
(dp53
g10
I77
sg11
I37
sg12
I20
sg13
(I578
I536
tp54
sb(dp55
s(inode
Node
p56
(dp57
g10
I64
sg11
I33
sg12
I21
sg13
(I591
I341
tp58
sb(dp59
s(inode
Node
p60
(dp61
g10
I128
sg11
I50
sg12
I0
sg13
(I34
I818
tp62
sb(dp63
s(inode
Node
p64
(dp65
g10
I3384
sg11
I489
sg12
I2
sg13
(I166
I100
tp66
sb(dp67
s(inode
Node
p68
(dp69
g10
I41
sg11
I26
sg12
I3
sg13
(I78
I676
tp70
sb(dp71
s(inode
Node
p72
(dp73
g10
I2141
sg11
I204
sg12
I4
sg13
(I126
I142
tp74
sb(dp75
s(inode
Node
p76
(dp77
g10
I30
sg11
I21
sg12
I5
sg13
(I108
I739
tp78
sb(dp79
s(inode
Node
p80
(dp81
g10
I17
sg11
I14
sg12
I6
sg13
(I152
I741
tp82
sb(dp83
s(inode
Node
p84
(dp85
g10
I65
sg11
I32
sg12
I7
sg13
(I162
I64
tp86
sb(dp87
s(inode
Node
p88
(dp89
g10
I1009
sg11
I228
sg12
I8
sg13
(I197
I31
tp90
sb(dp91
s(inode
Node
p92
(dp93
g10
I2222
sg11
I204
sg12
I9
sg13
(I202
I145
tp94
sb(dp95
s(inode
Node
p96
(dp97
g10
I18
sg11
I16
sg12
I10
sg13
(I238
I616
tp98
sb(dp99
ssS'node_dict_factory'
p100
c__builtin__
dict
p101
sS'edge_attr_dict_factory'
p102
g101
sS'succ'
p103
(dp104
g8
(dp105
g80
(dp106
S'weight'
p107
F227.75864418282788
ssg20
(dp108
g107
F110.76551810017412
ssg24
(dp109
g107
F244.96530366564158
ssg32
(dp110
g107
F168.15469068687915
ssg96
(dp111
g107
F82.49242389456137
ssg68
(dp112
g107
F220.73740054644117
sssg16
(dp113
g72
(dp114
g107
F124.25779653607253
ssg84
(dp115
g107
F123.0447073221762
ssg92
(dp116
g107
F48.25971404805462
ssg88
(dp117
g107
F130.26895255585654
ssg28
(dp118
g107
F173.2887763243771
ssg64
(dp119
g107
F97.75479527879949
sssg20
(dp120
g8
(dp121
g107
F110.76551810017412
ssg76
(dp122
g107
F179.24564150907548
ssg80
(dp123
g107
F145.16542288024377
ssg24
(dp124
g107
F134.34656675925888
ssg32
(dp125
g107
F74.62573282722254
ssg96
(dp126
g107
F35.608987629529715
sssg24
(dp127
g76
(dp128
g107
F180.8258831030558
ssg80
(dp129
g107
F137.5281789307195
ssg20
(dp130
g107
F134.34656675925888
ssg32
(dp131
g107
F99.53893710503444
ssg96
(dp132
g107
F166.76030702778164
ssg68
(dp133
g107
F229.88910370002316
sssg28
(dp134
g72
(dp135
g107
F49.040799340956916
ssg16
(dp136
g107
F173.2887763243771
ssg84
(dp137
g107
F114.02192771568107
ssg64
(dp138
g107
F97.57561170702442
ssg88
(dp139
g107
F162.1141573089778
ssg92
(dp140
g107
F125.09996003196804
sssg32
(dp141
g8
(dp142
g107
F168.15469068687915
ssg76
(dp143
g107
F221.92341021172146
ssg80
(dp144
g107
F180.24982662959764
ssg20
(dp145
g107
F74.62573282722254
ssg24
(dp146
g107
F99.53893710503444
ssg96
(dp147
g107
F108.85311203635843
sssg36
(dp148
g40
(dp149
g107
F26.076809620810597
ssg44
(dp150
g107
F220.19309707617992
ssg16
(dp151
g107
F217.00921639414304
ssg56
(dp152
g107
F229.40139493908924
ssg48
(dp153
g107
F183.33848477611022
ssg92
(dp154
g107
F265.01698058803703
sssg40
(dp155
g44
(dp156
g107
F245.7173172570464
ssg16
(dp157
g107
F220.7826985975124
ssg56
(dp158
g107
F250.68905041904003
ssg48
(dp159
g107
F205.27298896834918
ssg92
(dp160
g107
F267.9888057363591
ssg36
(dp161
g107
F26.076809620810597
sssg44
(dp162
g40
(dp163
g107
F245.7173172570464
ssg8
(dp164
g107
F302.03476621077914
ssg48
(dp165
g107
F86.27861844049197
ssg52
(dp166
g107
F187.88294228055935
ssg56
(dp167
g107
F96.30160954002794
ssg36
(dp168
g107
F220.19309707617992
sssg48
(dp169
g40
(dp170
g107
F205.27298896834918
ssg44
(dp171
g107
F86.27861844049197
ssg16
(dp172
g107
F347.0389027184128
ssg52
(dp173
g107
F230.70327262524907
ssg56
(dp174
g107
F46.75467891024384
ssg36
(dp175
g107
F183.33848477611022
sssg52
(dp176
g44
(dp177
g107
F187.88294228055935
ssg8
(dp178
g107
F331.0060422409235
ssg48
(dp179
g107
F230.70327262524907
ssg20
(dp180
g107
F335.8392472597567
ssg56
(dp181
g107
F195.4328529188478
ssg32
(dp182
g107
F294.83724323768865
sssg56
(dp183
g40
(dp184
g107
F250.68905041904003
ssg44
(dp185
g107
F96.30160954002794
ssg16
(dp186
g107
F390.8477964630222
ssg52
(dp187
g107
F195.4328529188478
ssg48
(dp188
g107
F46.75467891024384
ssg36
(dp189
g107
F229.40139493908924
sssg60
(dp190
g76
(dp191
g107
F108.2450922675019
ssg80
(dp192
g107
F140.90067423543437
ssg20
(dp193
g107
F285.2227199926401
ssg24
(dp194
g107
F254.48968544913564
ssg96
(dp195
g107
F287.08883642524313
ssg68
(dp196
g107
F148.66068747318505
sssg64
(dp197
g72
(dp198
g107
F58.0
ssg16
(dp199
g107
F97.75479527879949
ssg84
(dp200
g107
F36.22154055254967
ssg88
(dp201
g107
F75.64390259630977
ssg28
(dp202
g107
F97.57561170702442
ssg92
(dp203
g107
F57.62811813689564
sssg68
(dp204
g8
(dp205
g107
F220.73740054644117
ssg76
(dp206
g107
F69.77822009767804
ssg80
(dp207
g107
F98.49365461794989
ssg20
(dp208
g107
F184.79177470872452
ssg60
(dp209
g107
F148.66068747318505
ssg96
(dp210
g107
F170.88007490635061
sssg72
(dp211
g16
(dp212
g107
F124.25779653607253
ssg84
(dp213
g107
F85.90692637965812
ssg64
(dp214
g107
F58.0
ssg88
(dp215
g107
F131.76494222667878
ssg28
(dp216
g107
F49.040799340956916
ssg92
(dp217
g107
F76.05918747922567
sssg76
(dp218
g80
(dp219
g107
F44.04543109109048
ssg20
(dp220
g107
F179.24564150907548
ssg24
(dp221
g107
F180.8258831030558
ssg60
(dp222
g107
F108.2450922675019
ssg96
(dp223
g107
F178.96647730790255
ssg68
(dp224
g107
F69.77822009767804
sssg80
(dp225
g76
(dp226
g107
F44.04543109109048
ssg20
(dp227
g107
F145.16542288024377
ssg24
(dp228
g107
F137.5281789307195
ssg60
(dp229
g107
F140.90067423543437
ssg96
(dp230
g107
F151.72672803431834
ssg68
(dp231
g107
F98.49365461794989
sssg84
(dp232
g72
(dp233
g107
F85.90692637965812
ssg16
(dp234
g107
F123.0447073221762
ssg64
(dp235
g107
F36.22154055254967
ssg88
(dp236
g107
F48.104053883222775
ssg28
(dp237
g107
F114.02192771568107
ssg92
(dp238
g107
F90.33825324855468
sssg88
(dp239
g72
(dp240
g107
F131.76494222667878
ssg16
(dp241
g107
F130.26895255585654
ssg84
(dp242
g107
F48.104053883222775
ssg64
(dp243
g107
F75.64390259630977
ssg28
(dp244
g107
F162.1141573089778
ssg92
(dp245
g107
F114.10959644131601
sssg92
(dp246
g72
(dp247
g107
F76.05918747922567
ssg16
(dp248
g107
F48.25971404805462
ssg84
(dp249
g107
F90.33825324855468
ssg88
(dp250
g107
F114.10959644131601
ssg28
(dp251
g107
F125.09996003196804
ssg64
(dp252
g107
F57.62811813689564
sssg96
(dp253
g8
(dp254
g107
F82.49242389456137
ssg80
(dp255
g107
F151.72672803431834
ssg20
(dp256
g107
F35.608987629529715
ssg24
(dp257
g107
F166.76030702778164
ssg32
(dp258
g107
F108.85311203635843
ssg68
(dp259
g107
F170.88007490635061
ssssS'edge'
p260
g104
sS'graph'
p261
(dp262
S'name'
p263
S'nyc'
p264
ssS'adjlist_dict_factory'
p265
g101
sS'adj'
p266
g104
sS'pred'
p267
(dp268
g8
(dp269
g44
g164
sg52
g178
sg20
g121
sg32
g142
sg96
g254
sg68
g205
ssg16
(dp270
g40
g157
sg72
g212
sg48
g172
sg84
g234
sg92
g248
sg56
g186
sg88
g241
sg28
g136
sg64
g199
sg36
g151
ssg20
(dp271
g8
g108
sg76
g220
sg80
g227
sg52
g180
sg24
g130
sg60
g193
sg32
g145
sg96
g256
sg68
g208
ssg24
(dp272
g8
g109
sg76
g221
sg80
g228
sg20
g124
sg60
g194
sg32
g146
sg96
g257
ssg28
(dp273
g72
g216
sg16
g118
sg84
g237
sg92
g251
sg88
g244
sg64
g202
ssg32
(dp274
g24
g131
sg96
g258
sg8
g110
sg20
g125
sg52
g182
ssg36
(dp275
g40
g161
sg48
g175
sg56
g189
sg44
g168
ssg40
(dp276
g48
g170
sg56
g184
sg36
g149
sg44
g163
ssg44
(dp277
g40
g156
sg48
g171
sg56
g185
sg36
g150
sg52
g177
ssg48
(dp278
g40
g159
sg56
g188
sg36
g153
sg44
g165
sg52
g179
ssg52
(dp279
g48
g173
sg56
g187
sg44
g166
ssg56
(dp280
g40
g158
sg48
g174
sg36
g152
sg44
g167
sg52
g181
ssg60
(dp281
g80
g229
sg68
g209
sg76
g222
ssg64
(dp282
g72
g214
sg16
g119
sg84
g235
sg88
g243
sg28
g138
sg92
g252
ssg68
(dp283
g8
g112
sg76
g224
sg80
g231
sg24
g133
sg60
g196
sg96
g259
ssg72
(dp284
g16
g114
sg84
g233
sg92
g247
sg88
g240
sg28
g135
sg64
g198
ssg76
(dp285
g80
g226
sg20
g122
sg24
g128
sg60
g191
sg32
g143
sg68
g206
ssg80
(dp286
g8
g106
sg76
g219
sg20
g123
sg24
g129
sg60
g192
sg32
g144
sg96
g255
sg68
g207
ssg84
(dp287
g72
g213
sg16
g115
sg92
g249
sg88
g242
sg28
g137
sg64
g200
ssg88
(dp288
g72
g215
sg16
g117
sg84
g236
sg92
g250
sg28
g139
sg64
g201
ssg92
(dp289
g40
g160
sg72
g217
sg16
g116
sg84
g238
sg88
g245
sg28
g140
sg64
g203
sg36
g154
ssg96
(dp290
g8
g111
sg76
g223
sg80
g230
sg20
g126
sg24
g132
sg60
g195
sg32
g147
sg68
g210
sssb.