ccopy_reg
_reconstructor
p0
(cnetworkx.classes.digraph
DiGraph
p1
c__builtin__
object
p2
Ntp3
Rp4
(dp5
S'node'
p6
(dp7
(inode
Node
p8
(dp9
S'area'
p10
I4593
sS'outline'
p11
I425
sS'id'
p12
I2
sS'pos'
p13
(I72
I708
tp14
sb(dp15
s(inode
Node
p16
(dp17
g10
I16
sg11
I15
sg12
I17
sg13
(I352
I533
tp18
sb(dp19
s(inode
Node
p20
(dp21
g10
I617
sg11
I140
sg12
I9
sg13
(I182
I643
tp22
sb(dp23
s(inode
Node
p24
(dp25
g10
I6228
sg11
I501
sg12
I3
sg13
(I94
I399
tp26
sb(dp27
s(inode
Node
p28
(dp29
g10
I16
sg11
I14
sg12
I18
sg13
(I355
I623
tp30
sb(dp31
s(inode
Node
p32
(dp33
g10
I461
sg11
I104
sg12
I10
sg13
(I224
I501
tp34
sb(dp35
s(inode
Node
p36
(dp37
g10
I11872
sg11
I564
sg12
I4
sg13
(I141
I100
tp38
sb(dp39
s(inode
Node
p40
(dp41
g10
I24734
sg11
I965
sg12
I11
sg13
(I358
I767
tp42
sb(dp43
s(inode
Node
p44
(dp45
g10
I2352
sg11
I385
sg12
I5
sg13
(I128
I570
tp46
sb(dp47
s(inode
Node
p48
(dp49
g10
I26117
sg11
I865
sg12
I12
sg13
(I345
I160
tp50
sb(dp51
s(inode
Node
p52
(dp53
g10
I17488
sg11
I1020
sg12
I6
sg13
(I182
I291
tp54
sb(dp55
s(inode
Node
p56
(dp57
g10
I2913
sg11
I284
sg12
I1
sg13
(I55
I586
tp58
sb(dp59
s(inode
Node
p60
(dp61
g10
I1757
sg11
I244
sg12
I13
sg13
(I309
I488
tp62
sb(dp63
s(inode
Node
p64
(dp65
g10
I29
sg11
I20
sg12
I7
sg13
(I130
I281
tp66
sb(dp67
s(inode
Node
p68
(dp69
g10
I19369
sg11
I1426
sg12
I15
sg13
(I423
I566
tp70
sb(dp71
s(inode
Node
p72
(dp73
g10
I34
sg11
I22
sg12
I8
sg13
(I139
I610
tp74
sb(dp75
s(inode
Node
p76
(dp77
g10
I891
sg11
I152
sg12
I0
sg13
(I18
I363
tp78
sb(dp79
s(inode
Node
p80
(dp81
g10
I21352
sg11
I926
sg12
I16
sg13
(I442
I362
tp82
sb(dp83
s(inode
Node
p84
(dp85
g10
I59
sg11
I32
sg12
I14
sg13
(I318
I533
tp86
sb(dp87
ssS'node_dict_factory'
p88
c__builtin__
dict
p89
sS'edge_attr_dict_factory'
p90
g89
sS'succ'
p91
(dp92
g8
(dp93
g20
(dp94
S'weight'
p95
F127.76932339180638
ssg32
(dp96
g95
F256.8131616564852
ssg40
(dp97
g95
F292.02225942554446
ssg44
(dp98
g95
F148.92951352905172
ssg56
(dp99
g95
F123.17873193047572
ssg72
(dp100
g95
F118.71394189394942
sssg16
(dp101
g28
(dp102
g95
F90.0499861188218
ssg32
(dp103
g95
F131.93938001976514
ssg84
(dp104
g95
F34.0
ssg60
(dp105
g95
F62.24146527838174
ssg68
(dp106
g95
F78.29431652425353
ssg80
(dp107
g95
F193.238194982255
sssg20
(dp108
g8
(dp109
g95
F127.76932339180638
ssg28
(dp110
g95
F174.15223225672418
ssg32
(dp111
g95
F148.08105888330215
ssg44
(dp112
g95
F90.80198235721508
ssg56
(dp113
g95
F139.20488497175666
ssg72
(dp114
g95
F54.20332093147061
sssg24
(dp115
g32
(dp116
g95
F165.23922052587878
ssg44
(dp117
g95
F174.34735443934903
ssg52
(dp118
g95
F139.31259813814398
ssg56
(dp119
g95
F191.02355875650522
ssg64
(dp120
g95
F123.36936410632909
ssg76
(dp121
g95
F84.09518416651456
sssg28
(dp122
g16
(dp123
g95
F90.0499861188218
ssg20
(dp124
g95
F174.15223225672418
ssg40
(dp125
g95
F144.03124660989366
ssg84
(dp126
g95
F97.30878685915265
ssg60
(dp127
g95
F142.6218777046495
ssg68
(dp128
g95
F88.72992730753249
sssg32
(dp129
g16
(dp130
g95
F131.93938001976514
ssg20
(dp131
g95
F148.08105888330215
ssg44
(dp132
g95
F118.22436297142819
ssg84
(dp133
g95
F99.29753269845128
ssg60
(dp134
g95
F85.98837130682264
ssg72
(dp135
g95
F138.2244551445221
sssg36
(dp136
g24
(dp137
g95
F302.67143902258107
ssg48
(dp138
g95
F212.6405417600322
ssg52
(dp139
g95
F195.35096621209735
ssg64
(dp140
g95
F181.33394607739612
ssg76
(dp141
g95
F290.34117861577954
ssg80
(dp142
g95
F399.0551340353861
sssg40
(dp143
g16
(dp144
g95
F234.07691043757393
ssg20
(dp145
g95
F215.29514625276622
ssg28
(dp146
g95
F144.03124660989366
ssg84
(dp147
g95
F237.39418695494632
ssg68
(dp148
g95
F211.24866863485792
ssg72
(dp149
g95
F269.462427807663
sssg44
(dp150
g8
(dp151
g95
F148.92951352905172
ssg20
(dp152
g95
F90.80198235721508
ssg24
(dp153
g95
F174.34735443934903
ssg32
(dp154
g95
F118.22436297142819
ssg56
(dp155
g95
F74.73285756613352
ssg72
(dp156
g95
F41.48493702538308
sssg48
(dp157
g24
(dp158
g95
F346.5862086119412
ssg36
(dp159
g95
F212.6405417600322
ssg52
(dp160
g95
F209.11719202399405
ssg60
(dp161
g95
F329.9696955782455
ssg64
(dp162
g95
F246.71035649116962
ssg80
(dp163
g95
F224.08257406590099
sssg52
(dp164
g24
(dp165
g95
F139.31259813814398
ssg32
(dp166
g95
F214.15881957089695
ssg36
(dp167
g95
F195.35096621209735
ssg48
(dp168
g95
F209.11719202399405
ssg64
(dp169
g95
F52.952809179494906
ssg76
(dp170
g95
F179.10890541790488
sssg56
(dp171
g8
(dp172
g95
F123.17873193047572
ssg20
(dp173
g95
F139.20488497175666
ssg24
(dp174
g95
F191.02355875650522
ssg32
(dp175
g95
F189.1718795170149
ssg44
(dp176
g95
F74.73285756613352
ssg72
(dp177
g95
F87.36131867136622
sssg60
(dp178
g16
(dp179
g95
F62.24146527838174
ssg28
(dp180
g95
F142.6218777046495
ssg32
(dp181
g95
F85.98837130682264
ssg84
(dp182
g95
F45.89117562233506
ssg68
(dp183
g95
F138.13037319865606
ssg80
(dp184
g95
F183.20753259623362
sssg64
(dp185
g24
(dp186
g95
F123.36936410632909
ssg32
(dp187
g95
F239.240464804765
ssg36
(dp188
g95
F181.33394607739612
ssg48
(dp189
g95
F246.71035649116962
ssg52
(dp190
g95
F52.952809179494906
ssg76
(dp191
g95
F138.80922159568507
sssg68
(dp192
g16
(dp193
g95
F78.29431652425353
ssg28
(dp194
g95
F88.72992730753249
ssg32
(dp195
g95
F209.34660255184463
ssg84
(dp196
g95
F110.06361796706484
ssg60
(dp197
g95
F138.13037319865606
ssg80
(dp198
g95
F204.88289338058462
sssg72
(dp199
g8
(dp200
g95
F118.71394189394942
ssg20
(dp201
g95
F54.20332093147061
ssg32
(dp202
g95
F138.2244551445221
ssg44
(dp203
g95
F41.48493702538308
ssg56
(dp204
g95
F87.36131867136622
ssg84
(dp205
g95
F194.85892332659543
sssg76
(dp206
g24
(dp207
g95
F84.09518416651456
ssg32
(dp208
g95
F247.95160818191923
ssg44
(dp209
g95
F234.4120304079976
ssg52
(dp210
g95
F179.10890541790488
ssg56
(dp211
g95
F226.0486673263083
ssg64
(dp212
g95
F138.80922159568507
sssg80
(dp213
g16
(dp214
g95
F193.238194982255
ssg32
(dp215
g95
F258.54400012377005
ssg48
(dp216
g95
F224.08257406590099
ssg84
(dp217
g95
F211.22736565132843
ssg60
(dp218
g95
F183.20753259623362
ssg68
(dp219
g95
F204.88289338058462
sssg84
(dp220
g16
(dp221
g95
F34.0
ssg20
(dp222
g95
F174.91712323268982
ssg28
(dp223
g95
F97.30878685915265
ssg32
(dp224
g95
F99.29753269845128
ssg60
(dp225
g95
F45.89117562233506
ssg68
(dp226
g95
F110.06361796706484
ssssS'edge'
p227
g92
sS'graph'
p228
(dp229
S'name'
p230
S'pepa'
p231
ssS'adjlist_dict_factory'
p232
g89
sS'adj'
p233
g92
sS'pred'
p234
(dp235
g8
(dp236
g56
g172
sg72
g200
sg20
g109
sg44
g151
ssg16
(dp237
g28
g123
sg32
g130
sg40
g144
sg84
g221
sg60
g179
sg68
g193
sg80
g214
ssg20
(dp238
g8
g94
sg28
g124
sg32
g131
sg40
g145
sg44
g152
sg56
g173
sg72
g201
sg84
g222
ssg24
(dp239
g36
g137
sg44
g153
sg48
g158
sg52
g165
sg56
g174
sg64
g186
sg76
g207
ssg28
(dp240
g16
g102
sg20
g110
sg40
g146
sg84
g223
sg60
g180
sg68
g194
ssg32
(dp241
g8
g96
sg16
g103
sg20
g111
sg24
g116
sg44
g154
sg52
g166
sg56
g175
sg60
g181
sg64
g187
sg68
g195
sg72
g202
sg76
g208
sg80
g215
sg84
g224
ssg36
(dp242
g64
g188
sg48
g159
sg52
g167
ssg40
(dp243
g8
g97
sg28
g125
ssg44
(dp244
g8
g98
sg20
g112
sg24
g117
sg32
g132
sg56
g176
sg72
g203
sg76
g209
ssg48
(dp245
g64
g189
sg36
g138
sg52
g168
sg80
g216
ssg52
(dp246
g64
g190
sg36
g139
sg48
g160
sg24
g118
sg76
g210
ssg56
(dp247
g8
g99
sg20
g113
sg24
g119
sg44
g155
sg72
g204
sg76
g211
ssg60
(dp248
g16
g105
sg28
g127
sg32
g134
sg48
g161
sg84
g225
sg68
g197
sg80
g218
ssg64
(dp249
g36
g140
sg52
g169
sg48
g162
sg24
g120
sg76
g212
ssg68
(dp250
g16
g106
sg28
g128
sg40
g148
sg84
g226
sg60
g183
sg80
g219
ssg72
(dp251
g8
g100
sg20
g114
sg32
g135
sg40
g149
sg44
g156
sg56
g177
ssg76
(dp252
g64
g191
sg36
g141
sg52
g170
sg24
g121
ssg80
(dp253
g68
g198
sg16
g107
sg48
g163
sg36
g142
sg60
g184
ssg84
(dp254
g16
g104
sg28
g126
sg32
g133
sg40
g147
sg60
g182
sg68
g196
sg72
g205
sg80
g217
sssb.