ccopy_reg
_reconstructor
p0
(cnetworkx.classes.digraph
DiGraph
p1
c__builtin__
object
p2
Ntp3
Rp4
(dp5
S'node'
p6
(dp7
(inode
Node
p8
(dp9
S'area'
p10
I3615
sS'outline'
p11
I300
sS'id'
p12
I4
sS'pos'
p13
(I124
I503
tp14
sb(dp15
s(inode
Node
p16
(dp17
g10
I3254
sg11
I280
sg12
I11
sg13
(I237
I315
tp18
sb(dp19
s(inode
Node
p20
(dp21
g10
I3434
sg11
I288
sg12
I5
sg13
(I127
I323
tp22
sb(dp23
s(inode
Node
p24
(dp25
g10
I2486
sg11
I260
sg12
I12
sg13
(I262
I387
tp26
sb(dp27
s(inode
Node
p28
(dp29
g10
I2316
sg11
I246
sg12
I6
sg13
(I149
I137
tp30
sb(dp31
s(inode
Node
p32
(dp33
g10
I1269
sg11
I170
sg12
I13
sg13
(I405
I770
tp34
sb(dp35
s(inode
Node
p36
(dp37
g10
I4513
sg11
I350
sg12
I7
sg13
(I176
I325
tp38
sb(dp39
s(inode
Node
p40
(dp41
g10
I3334
sg11
I290
sg12
I9
sg13
(I197
I551
tp42
sb(dp43
s(inode
Node
p44
(dp45
g10
I2450
sg11
I223
sg12
I14
sg13
(I467
I780
tp46
sb(dp47
s(inode
Node
p48
(dp49
g10
I6015
sg11
I370
sg12
I8
sg13
(I192
I441
tp50
sb(dp51
s(inode
Node
p52
(dp53
g10
I3511
sg11
I429
sg12
I0
sg13
(I71
I217
tp54
sb(dp55
s(inode
Node
p56
(dp57
g10
I2759
sg11
I276
sg12
I15
sg13
(I528
I808
tp58
sb(dp59
s(inode
Node
p60
(dp61
g10
I5025
sg11
I374
sg12
I2
sg13
(I75
I307
tp62
sb(dp63
s(inode
Node
p64
(dp65
g10
I21
sg11
I16
sg12
I1
sg13
(I41
I177
tp66
sb(dp67
s(inode
Node
p68
(dp69
g10
I4455
sg11
I320
sg12
I10
sg13
(I220
I222
tp70
sb(dp71
s(inode
Node
p72
(dp73
g10
I4188
sg11
I364
sg12
I3
sg13
(I114
I444
tp74
sb(dp75
ssS'node_dict_factory'
p76
c__builtin__
dict
p77
sS'edge_attr_dict_factory'
p78
g77
sS'succ'
p79
(dp80
g8
(dp81
g20
(dp82
S'weight'
p83
F180.02499826412998
ssg24
(dp84
g83
F180.27756377319946
ssg36
(dp85
g83
F185.44001725625458
ssg48
(dp86
g83
F92.02173656261873
ssg40
(dp87
g83
F87.36704184073076
ssg72
(dp88
g83
F59.841457201508724
sssg16
(dp89
g20
(dp90
g83
F110.2905254316979
ssg24
(dp91
g83
F76.21679604916491
ssg36
(dp92
g83
F61.814237842102365
ssg48
(dp93
g83
F133.79461872586654
ssg60
(dp94
g83
F162.19741058352318
ssg68
(dp95
g83
F94.54099639838793
sssg20
(dp96
g16
(dp97
g83
F110.2905254316979
ssg36
(dp98
g83
F49.040799340956916
ssg48
(dp99
g83
F134.71822445385777
ssg52
(dp100
g83
F119.88327656516567
ssg60
(dp101
g83
F54.405882034941776
ssg72
(dp102
g83
F121.69634341261039
sssg24
(dp103
g16
(dp104
g83
F76.21679604916491
ssg20
(dp105
g83
F149.40214188558343
ssg36
(dp106
g83
F106.01886624558857
ssg48
(dp107
g83
F88.40814442120137
ssg68
(dp108
g83
F170.26156348395253
ssg72
(dp109
g83
F158.59697348940804
sssg28
(dp110
g20
(dp111
g83
F187.29655629509048
ssg36
(dp112
g83
F189.92893407798613
ssg52
(dp113
g83
F111.73182178770737
ssg60
(dp114
g83
F185.40765895722862
ssg64
(dp115
g83
F115.16944039110375
ssg68
(dp116
g83
F110.75197515168747
sssg32
(dp117
g8
(dp118
g83
F387.62094886628614
ssg24
(dp119
g83
F408.8251459976502
ssg44
(dp120
g83
F62.80127387243033
ssg48
(dp121
g83
F391.9311163967464
ssg56
(dp122
g83
F128.73616430514
ssg40
(dp123
g83
F302.03476621077914
sssg36
(dp124
g16
(dp125
g83
F61.814237842102365
ssg20
(dp126
g83
F49.040799340956916
ssg24
(dp127
g83
F106.01886624558857
ssg48
(dp128
g83
F117.09824934643558
ssg60
(dp129
g83
F102.59142264341595
ssg68
(dp130
g83
F112.0044641967453
sssg40
(dp131
g8
(dp132
g83
F87.36704184073076
ssg20
(dp133
g83
F238.5036687348855
ssg24
(dp134
g83
F176.41145087550296
ssg36
(dp135
g83
F226.97356674291393
ssg48
(dp136
g83
F110.11357772772621
ssg72
(dp137
g83
F135.41787178950938
sssg44
(dp138
g8
(dp139
g83
F440.883204488445
ssg24
(dp140
g83
F443.25387759161225
ssg32
(dp141
g83
F62.80127387243033
ssg48
(dp142
g83
F436.5157500022193
ssg56
(dp143
g83
F67.11929677819934
ssg40
(dp144
g83
F354.0353089735542
sssg48
(dp145
g8
(dp146
g83
F92.02173656261873
ssg16
(dp147
g83
F133.79461872586654
ssg24
(dp148
g83
F88.40814442120137
ssg36
(dp149
g83
F117.09824934643558
ssg40
(dp150
g83
F110.11357772772621
ssg72
(dp151
g83
F78.05767098754612
sssg52
(dp152
g20
(dp153
g83
F119.88327656516567
ssg28
(dp154
g83
F111.73182178770737
ssg36
(dp155
g83
F150.6286825275983
ssg60
(dp156
g83
F90.08884503644167
ssg64
(dp157
g83
F50.0
ssg68
(dp158
g83
F149.08386901338454
sssg56
(dp159
g8
(dp160
g83
F506.20252863848873
ssg24
(dp161
g83
F497.99297183795676
ssg32
(dp162
g83
F128.73616430514
ssg44
(dp163
g83
F67.11929677819934
ssg48
(dp164
g83
F497.5791394341206
ssg40
(dp165
g83
F419.0584684742691
sssg60
(dp166
g16
(dp167
g83
F162.19741058352318
ssg20
(dp168
g83
F54.405882034941776
ssg36
(dp169
g83
F102.59142264341595
ssg52
(dp170
g83
F90.08884503644167
ssg64
(dp171
g83
F134.3726162579266
ssg72
(dp172
g83
F142.44297104455524
sssg64
(dp173
g20
(dp174
g83
F169.44615663980107
ssg28
(dp175
g83
F115.16944039110375
ssg36
(dp176
g83
F200.32224040280698
ssg52
(dp177
g83
F50.0
ssg60
(dp178
g83
F134.3726162579266
ssg68
(dp179
g83
F184.5697700058165
sssg68
(dp180
g16
(dp181
g83
F94.54099639838793
ssg20
(dp182
g83
F137.2953021774598
ssg28
(dp183
g83
F110.75197515168747
ssg36
(dp184
g83
F112.0044641967453
ssg52
(dp185
g83
F149.08386901338454
ssg60
(dp186
g83
F168.0773631397161
sssg72
(dp187
g8
(dp188
g83
F59.841457201508724
ssg20
(dp189
g83
F121.69634341261039
ssg36
(dp190
g83
F134.18271125595876
ssg40
(dp191
g83
F135.41787178950938
ssg48
(dp192
g83
F78.05767098754612
ssg60
(dp193
g83
F142.44297104455524
ssssS'edge'
p194
g80
sS'graph'
p195
(dp196
S'name'
p197
S'pepa'
p198
ssS'adjlist_dict_factory'
p199
g77
sS'adj'
p200
g80
sS'pred'
p201
(dp202
g8
(dp203
g32
g118
sg44
g139
sg48
g146
sg56
g160
sg40
g132
sg72
g188
ssg16
(dp204
g20
g97
sg24
g104
sg36
g125
sg48
g147
sg60
g167
sg68
g181
ssg20
(dp205
g8
g82
sg16
g90
sg24
g105
sg28
g111
sg36
g126
sg60
g168
sg52
g153
sg40
g133
sg64
g174
sg68
g182
sg72
g189
ssg24
(dp206
g8
g84
sg16
g91
sg32
g119
sg36
g127
sg44
g140
sg48
g148
sg56
g161
sg40
g134
ssg28
(dp207
g64
g175
sg52
g154
sg68
g183
ssg32
(dp208
g44
g141
sg56
g162
ssg36
(dp209
g8
g85
sg16
g92
sg20
g98
sg24
g106
sg28
g112
sg60
g169
sg48
g149
sg52
g155
sg40
g135
sg64
g176
sg68
g184
sg72
g190
ssg40
(dp210
g8
g87
sg32
g123
sg44
g144
sg48
g150
sg56
g165
sg72
g191
ssg44
(dp211
g32
g120
sg56
g163
ssg48
(dp212
g8
g86
sg16
g93
sg20
g99
sg24
g107
sg32
g121
sg36
g128
sg44
g142
sg56
g164
sg40
g136
sg72
g192
ssg52
(dp213
g60
g170
sg64
g177
sg28
g113
sg68
g185
sg20
g100
ssg56
(dp214
g44
g143
sg32
g122
ssg60
(dp215
g16
g94
sg20
g101
sg28
g114
sg36
g129
sg52
g156
sg64
g178
sg68
g186
sg72
g193
ssg64
(dp216
g60
g171
sg28
g115
sg52
g157
ssg68
(dp217
g16
g95
sg24
g108
sg28
g116
sg36
g130
sg52
g158
sg64
g179
ssg72
(dp218
g8
g88
sg20
g102
sg24
g109
sg60
g172
sg48
g151
sg40
g137
sssb.