ccopy_reg
_reconstructor
p0
(cnetworkx.classes.digraph
DiGraph
p1
c__builtin__
object
p2
Ntp3
Rp4
(dp5
S'node'
p6
(dp7
(inode
Node
p8
(dp9
S'area'
p10
I14182
sS'outline'
p11
I845
sS'id'
p12
I9
sS'pos'
p13
(I442
I617
tp14
sb(dp15
s(inode
Node
p16
(dp17
g10
I10
sg11
I10
sg12
I10
sg13
(I395
I22
tp18
sb(dp19
s(inode
Node
p20
(dp21
g10
I11
sg11
I10
sg12
I11
sg13
(I416
I134
tp22
sb(dp23
s(inode
Node
p24
(dp25
g10
I7310
sg11
I425
sg12
I12
sg13
(I475
I751
tp26
sb(dp27
s(inode
Node
p28
(dp29
g10
I8848
sg11
I472
sg12
I1
sg13
(I182
I715
tp30
sb(dp31
s(inode
Node
p32
(dp33
g10
I18392
sg11
I819
sg12
I13
sg13
(I502
I501
tp34
sb(dp35
s(inode
Node
p36
(dp37
g10
I17
sg11
I14
sg12
I14
sg13
(I425
I64
tp38
sb(dp39
s(inode
Node
p40
(dp41
g10
I266
sg11
I82
sg12
I15
sg13
(I446
I134
tp42
sb(dp43
s(inode
Node
p44
(dp45
g10
I56
sg11
I32
sg12
I16
sg13
(I453
I112
tp46
sb(dp47
s(inode
Node
p48
(dp49
g10
I2277
sg11
I478
sg12
I17
sg13
(I503
I55
tp50
sb(dp51
s(inode
Node
p52
(dp53
g10
I4408
sg11
I756
sg12
I18
sg13
(I515
I133
tp54
sb(dp55
s(inode
Node
p56
(dp57
g10
I2402
sg11
I381
sg12
I19
sg13
(I522
I349
tp58
sb(dp59
s(inode
Node
p60
(dp61
g10
I87
sg11
I39
sg12
I20
sg13
(I524
I298
tp62
sb(dp63
s(inode
Node
p64
(dp65
g10
I20
sg11
I17
sg12
I21
sg13
(I523
I15
tp66
sb(dp67
s(inode
Node
p68
(dp69
g10
I2689
sg11
I325
sg12
I22
sg13
(I563
I388
tp70
sb(dp71
s(inode
Node
p72
(dp73
g10
I39
sg11
I27
sg12
I23
sg13
(I559
I138
tp74
sb(dp75
s(inode
Node
p76
(dp77
g10
I44
sg11
I27
sg12
I24
sg13
(I566
I115
tp78
sb(dp79
s(inode
Node
p80
(dp81
g10
I30801
sg11
I927
sg12
I0
sg13
(I112
I544
tp82
sb(dp83
s(inode
Node
p84
(dp85
g10
I22339
sg11
I908
sg12
I2
sg13
(I239
I366
tp86
sb(dp87
s(inode
Node
p88
(dp89
g10
I15592
sg11
I784
sg12
I3
sg13
(I259
I121
tp90
sb(dp91
s(inode
Node
p92
(dp93
g10
I12512
sg11
I572
sg12
I4
sg13
(I292
I557
tp94
sb(dp95
s(inode
Node
p96
(dp97
g10
I4104
sg11
I350
sg12
I5
sg13
(I272
I729
tp98
sb(dp99
s(inode
Node
p100
(dp101
g10
I6236
sg11
I435
sg12
I6
sg13
(I315
I665
tp102
sb(dp103
s(inode
Node
p104
(dp105
g10
I11169
sg11
I540
sg12
I7
sg13
(I349
I418
tp106
sb(dp107
s(inode
Node
p108
(dp109
g10
I14429
sg11
I958
sg12
I8
sg13
(I386
I253
tp110
sb(dp111
ssS'node_dict_factory'
p112
c__builtin__
dict
p113
sS'edge_attr_dict_factory'
p114
g113
sS'succ'
p115
(dp116
g8
(dp117
g92
(dp118
S'weight'
p119
F161.55494421403512
ssg96
(dp120
g119
F203.57799488156869
ssg24
(dp121
g119
F138.00362314084367
ssg100
(dp122
g119
F135.76818478568535
ssg32
(dp123
g119
F130.59862173851607
ssg104
(dp124
g119
F219.65882636488797
sssg16
(dp125
g40
(dp126
g119
F123.06502346320826
ssg36
(dp127
g119
F51.61395160225576
ssg44
(dp128
g119
F107.07007051459338
ssg48
(dp129
g119
F112.92918134831227
ssg20
(dp130
g119
F113.95174417269794
ssg64
(dp131
g119
F128.191263352851
sssg20
(dp132
g40
(dp133
g119
F30.0
ssg44
(dp134
g119
F43.04648650006177
ssg48
(dp135
g119
F117.51595636338071
ssg52
(dp136
g119
F99.00505037623081
ssg16
(dp137
g119
F113.95174417269794
ssg36
(dp138
g119
F70.57619995437555
sssg24
(dp139
g8
(dp140
g119
F138.00362314084367
ssg92
(dp141
g119
F266.6927070618917
ssg96
(dp142
g119
F204.1886382735337
ssg100
(dp143
g119
F181.64801127455263
ssg28
(dp144
g119
F295.2033197645311
ssg32
(dp145
g119
F251.45377308761942
sssg28
(dp146
g8
(dp147
g119
F277.8560778532656
ssg92
(dp148
g119
F192.52012881774206
ssg96
(dp149
g119
F91.0823802938856
ssg24
(dp150
g119
F295.2033197645311
ssg100
(dp151
g119
F142.08800090085018
ssg80
(dp152
g119
F184.77283350103176
sssg32
(dp153
g8
(dp154
g119
F130.59862173851607
ssg92
(dp155
g119
F217.33844574764032
ssg56
(dp156
g119
F153.3101431738944
ssg60
(dp157
g119
F204.1886382735337
ssg104
(dp158
g119
F174.06320691059327
ssg68
(dp159
g119
F128.41339493993607
sssg36
(dp160
g40
(dp161
g119
F73.08214556237385
ssg44
(dp162
g119
F55.569775957799216
ssg48
(dp163
g119
F78.5175139698144
ssg20
(dp164
g119
F70.57619995437555
ssg16
(dp165
g119
F51.61395160225576
ssg64
(dp166
g119
F109.5673308974897
sssg40
(dp167
g72
(dp168
g119
F113.07077429645558
ssg48
(dp169
g119
F97.41663102366043
ssg52
(dp170
g119
F69.00724599634447
ssg20
(dp171
g119
F30.0
ssg44
(dp172
g119
F23.08679276123039
ssg36
(dp173
g119
F73.08214556237385
sssg44
(dp174
g40
(dp175
g119
F23.08679276123039
ssg16
(dp176
g119
F107.07007051459338
ssg52
(dp177
g119
F65.45991139621256
ssg20
(dp178
g119
F43.04648650006177
ssg48
(dp179
g119
F75.82216034906945
ssg36
(dp180
g119
F55.569775957799216
sssg48
(dp181
g40
(dp182
g119
F97.41663102366043
ssg36
(dp183
g119
F78.5175139698144
ssg44
(dp184
g119
F75.82216034906945
ssg76
(dp185
g119
F87.0
ssg52
(dp186
g119
F78.91767862779544
ssg64
(dp187
g119
F44.721359549995796
sssg52
(dp188
g40
(dp189
g119
F69.00724599634447
ssg44
(dp190
g119
F65.45991139621256
ssg76
(dp191
g119
F54.08326913195984
ssg48
(dp192
g119
F78.91767862779544
ssg20
(dp193
g119
F99.00505037623081
ssg72
(dp194
g119
F44.28317965096906
sssg56
(dp195
g72
(dp196
g119
F214.21951358361358
ssg60
(dp197
g119
F51.03920062069938
ssg32
(dp198
g119
F153.3101431738944
ssg104
(dp199
g119
F186.25251676151922
ssg108
(dp200
g119
F166.4692163734785
ssg68
(dp201
g119
F56.586217403180434
sssg60
(dp202
g40
(dp203
g119
F181.60396471443016
ssg72
(dp204
g119
F163.783393541592
ssg52
(dp205
g119
F165.24527224704494
ssg56
(dp206
g119
F51.03920062069938
ssg108
(dp207
g119
F145.15164484083533
ssg68
(dp208
g119
F98.08669634563088
sssg64
(dp209
g44
(dp210
g119
F119.6202324023825
ssg76
(dp211
g119
F108.85311203635843
ssg48
(dp212
g119
F44.721359549995796
ssg52
(dp213
g119
F118.27087553578015
ssg72
(dp214
g119
F128.16005617976296
ssg36
(dp215
g119
F109.5673308974897
sssg68
(dp216
g72
(dp217
g119
F250.0319979522621
ssg56
(dp218
g119
F56.586217403180434
ssg60
(dp219
g119
F98.08669634563088
ssg32
(dp220
g119
F128.41339493993607
ssg104
(dp221
g119
F216.0925727552893
ssg108
(dp222
g119
F222.60727750906977
sssg72
(dp223
g40
(dp224
g119
F113.07077429645558
ssg44
(dp225
g119
F109.14210919713803
ssg76
(dp226
g119
F24.041630560342615
ssg48
(dp227
g119
F100.12492197250393
ssg52
(dp228
g119
F44.28317965096906
ssg64
(dp229
g119
F128.16005617976296
sssg76
(dp230
g40
(dp231
g119
F121.49485585818027
ssg44
(dp232
g119
F113.03981599418853
ssg48
(dp233
g119
F87.0
ssg52
(dp234
g119
F54.08326913195984
ssg72
(dp235
g119
F24.041630560342615
ssg64
(dp236
g119
F108.85311203635843
sssg80
(dp237
g84
(dp238
g119
F218.66183937761065
ssg92
(dp239
g119
F180.46883387443938
ssg96
(dp240
g119
F244.59149617270018
ssg100
(dp241
g119
F236.32604596192948
ssg28
(dp242
g119
F184.77283350103176
ssg104
(dp243
g119
F268.41199675126296
sssg84
(dp244
g88
(dp245
g119
F245.81497106563708
ssg92
(dp246
g119
F198.21705274773913
ssg56
(dp247
g119
F283.51014091210214
ssg104
(dp248
g119
F121.67168939404104
ssg108
(dp249
g119
F185.41305239923105
ssg80
(dp250
g119
F218.66183937761065
sssg88
(dp251
g40
(dp252
g119
F187.45132701584163
ssg44
(dp253
g119
F194.20865068271289
ssg16
(dp254
g119
F168.21712160181556
ssg20
(dp255
g119
F157.53729717117784
ssg36
(dp256
g119
F175.5135322418189
ssg108
(dp257
g119
F183.17477992343814
sssg92
(dp258
g8
(dp259
g119
F161.55494421403512
ssg96
(dp260
g119
F173.1588865753069
ssg100
(dp261
g119
F110.42191811411355
ssg28
(dp262
g119
F192.52012881774206
ssg104
(dp263
g119
F150.23315213360866
ssg80
(dp264
g119
F180.46883387443938
sssg96
(dp265
g8
(dp266
g119
F203.57799488156869
ssg92
(dp267
g119
F173.1588865753069
ssg24
(dp268
g119
F204.1886382735337
ssg100
(dp269
g119
F77.10382610480494
ssg28
(dp270
g119
F91.0823802938856
ssg80
(dp271
g119
F244.59149617270018
sssg100
(dp272
g8
(dp273
g119
F135.76818478568535
ssg92
(dp274
g119
F110.42191811411355
ssg96
(dp275
g119
F77.10382610480494
ssg24
(dp276
g119
F181.64801127455263
ssg28
(dp277
g119
F142.08800090085018
ssg80
(dp278
g119
F236.32604596192948
sssg104
(dp279
g84
(dp280
g119
F121.67168939404104
ssg92
(dp281
g119
F150.23315213360866
ssg56
(dp282
g119
F186.25251676151922
ssg60
(dp283
g119
F212.19095173922943
ssg32
(dp284
g119
F174.06320691059327
ssg108
(dp285
g119
F169.09760495051373
sssg108
(dp286
g40
(dp287
g119
F133.27040181525678
ssg44
(dp288
g119
F156.1089363233252
ssg20
(dp289
g119
F122.723265927859
ssg56
(dp290
g119
F166.4692163734785
ssg60
(dp291
g119
F145.15164484083533
ssg104
(dp292
g119
F169.09760495051373
ssssS'edge'
p293
g116
sS'graph'
p294
(dp295
S'name'
p296
S'pepe'
p297
ssS'adjlist_dict_factory'
p298
g113
sS'adj'
p299
g116
sS'pred'
p300
(dp301
g8
(dp302
g92
g259
sg96
g266
sg24
g140
sg100
g273
sg28
g147
sg32
g154
ssg16
(dp303
g36
g165
sg44
g176
sg88
g254
sg20
g137
ssg20
(dp304
g40
g171
sg44
g178
sg88
g255
sg16
g130
sg52
g193
sg36
g164
sg108
g289
ssg24
(dp305
g100
g276
sg96
g268
sg8
g121
sg28
g150
ssg28
(dp306
g92
g262
sg24
g144
sg100
g277
sg80
g242
sg96
g270
ssg32
(dp307
g104
g284
sg24
g145
sg56
g198
sg8
g123
sg68
g220
ssg36
(dp308
g40
g173
sg44
g180
sg88
g256
sg16
g127
sg20
g138
sg48
g183
sg64
g215
ssg40
(dp309
g44
g175
sg88
g252
sg76
g231
sg16
g126
sg52
g189
sg20
g133
sg60
g203
sg48
g182
sg72
g224
sg36
g161
sg108
g287
ssg44
(dp310
g40
g172
sg64
g210
sg72
g225
sg88
g253
sg76
g232
sg16
g128
sg52
g190
sg20
g134
sg48
g184
sg36
g162
sg108
g288
ssg48
(dp311
g40
g169
sg64
g212
sg44
g179
sg76
g233
sg16
g129
sg52
g192
sg20
g135
sg72
g227
sg36
g163
ssg52
(dp312
g40
g170
sg44
g177
sg76
g234
sg48
g186
sg20
g136
sg60
g205
sg72
g228
sg64
g213
ssg56
(dp313
g84
g247
sg60
g206
sg32
g156
sg104
g282
sg108
g290
sg68
g218
ssg60
(dp314
g104
g283
sg56
g197
sg68
g219
sg108
g291
sg32
g157
ssg64
(dp315
g76
g236
sg16
g131
sg36
g166
sg72
g229
sg48
g187
ssg68
(dp316
g56
g201
sg60
g208
sg32
g159
ssg72
(dp317
g40
g168
sg76
g235
sg52
g194
sg56
g196
sg60
g204
sg64
g214
sg68
g217
ssg76
(dp318
g48
g185
sg64
g211
sg72
g226
sg52
g191
ssg80
(dp319
g84
g250
sg92
g264
sg100
g278
sg28
g152
sg96
g271
ssg84
(dp320
g104
g280
sg80
g238
ssg88
(dp321
g84
g245
ssg92
(dp322
g84
g246
sg8
g118
sg96
g267
sg24
g141
sg100
g274
sg28
g148
sg32
g155
sg104
g281
sg80
g239
ssg96
(dp323
g8
g120
sg92
g260
sg24
g142
sg100
g275
sg28
g149
sg80
g240
ssg100
(dp324
g8
g122
sg92
g261
sg96
g269
sg24
g143
sg28
g151
sg80
g241
ssg104
(dp325
g84
g248
sg8
g124
sg92
g263
sg56
g199
sg32
g158
sg108
g292
sg80
g243
sg68
g221
ssg108
(dp326
g84
g249
sg88
g257
sg56
g200
sg60
g207
sg104
g285
sg68
g222
sssb.